; Function Attrs: nofree norecurse nosync nounwind memory(read, argmem: readwrite, inaccessiblemem: none) uwtable
define void @SUNDlsMat_bandMatvec(ptr noundef readonly captures(none) %0, ptr noundef readonly captures(none) %1, ptr noundef captures(none) %2, i64 noundef %3, i64 noundef %4, i64 noundef %5, i64 noundef %6) local_unnamed_addr #1 {
  %8 = icmp sgt i64 %3, 0
  br i1 %8, label %.lr.ph43, label %._crit_edge44

.lr.ph43:                                         ; preds = %7
  %9 = shl nuw i64 %3, 3
  tail call void @llvm.memset.p0.i64(ptr align 8 %2, i8 0, i64 %9, i1 false), !tbaa !17
  %10 = add nsw i64 %3, -1
  br label %11

11:                                               ; preds = %.lr.ph43, %._crit_edge
  %.03342 = phi i64 [ 0, %.lr.ph43 ], [ %29, %._crit_edge ]
  %12 = getelementptr inbounds nuw ptr, ptr %0, i64 %.03342
  %13 = load ptr, ptr %12, align 8, !tbaa !16
  %14 = getelementptr inbounds double, ptr %13, i64 %6
  %15 = sub nsw i64 %.03342, %4
  %16 = tail call i64 @llvm.smax.i64(i64 %15, i64 0)
  %17 = add nsw i64 %.03342, %5
  %.not = icmp sgt i64 %3, %17
  %18 = select i1 %.not, i64 %17, i64 %10
  %.not3739 = icmp sgt i64 %16, %18
  br i1 %.not3739, label %._crit_edge, label %.lr.ph41

.lr.ph41:                                         ; preds = %11
  %19 = getelementptr inbounds nuw double, ptr %1, i64 %.03342
  br label %20

20:                                               ; preds = %.lr.ph41, %20
  %.140 = phi i64 [ %16, %.lr.ph41 ], [ %28, %20 ]
  %21 = sub nsw i64 %.140, %.03342
  %22 = getelementptr inbounds double, ptr %14, i64 %21
  %23 = load double, ptr %22, align 8, !tbaa !17
  %24 = load double, ptr %19, align 8, !tbaa !17
  %25 = getelementptr inbounds nuw double, ptr %2, i64 %.140
  %26 = load double, ptr %25, align 8, !tbaa !17
  %27 = tail call double @llvm.fmuladd.f64(double %23, double %24, double %26)
  store double %27, ptr %25, align 8, !tbaa !17
  %28 = add nuw nsw i64 %.140, 1
  %.not37.not = icmp slt i64 %.140, %18
  br i1 %.not37.not, label %20, label %._crit_edge

._crit_edge:                                      ; preds = %20, %11
  %29 = add nuw nsw i64 %.03342, 1
  %exitcond.not = icmp eq i64 %29, %3
  br i1 %exitcond.not, label %._crit_edge44, label %11

._crit_edge44:                                    ; preds = %._crit_edge, %7
  ret void
}